(lp0
(dp1
S'H'
p2
cnumpy.core.multiarray
scalar
p3
(cnumpy
dtype
p4
(S'f8'
p5
I0
I1
tp6
Rp7
(I3
S'<'
p8
NNNI-1
I-1
I0
tp9
bS'\x07\\\xac\x92\xf5\xc1\xed?'
p10
tp11
Rp12
sS'Regressor'
p13
ccopy_reg
_reconstructor
p14
(csklearn.linear_model.logistic
LogisticRegression
p15
c__builtin__
object
p16
Ntp17
Rp18
(dp19
S'warm_start'
p20
I00
sS'C'
p21
F1.0
sS'n_jobs'
p22
NsS'verbose'
p23
I0
sS'fit_intercept'
p24
I01
sS'solver'
p25
S'lbfgs'
p26
sS'classes_'
p27
cnumpy.core.multiarray
_reconstruct
p28
(cnumpy
ndarray
p29
(I0
tp30
S'b'
p31
tp32
Rp33
(I1
(I2
tp34
g4
(S'i8'
p35
I0
I1
tp36
Rp37
(I3
S'<'
p38
NNNI-1
I-1
I0
tp39
bI00
S'\x00\x00\x00\x00\x00\x00\x00\x00\x01\x00\x00\x00\x00\x00\x00\x00'
p40
tp41
bsS'n_iter_'
p42
g28
(g29
(I0
tp43
g31
tp44
Rp45
(I1
(I1
tp46
g4
(S'i4'
p47
I0
I1
tp48
Rp49
(I3
S'<'
p50
NNNI-1
I-1
I0
tp51
bI00
S'\x14\x00\x00\x00'
p52
tp53
bsS'intercept_scaling'
p54
I1
sS'penalty'
p55
S'l2'
p56
sS'multi_class'
p57
S'multinomial'
p58
sS'random_state'
p59
I0
sS'_sklearn_version'
p60
S'0.20.3'
p61
sS'dual'
p62
I00
sS'tol'
p63
F0.0001
sS'coef_'
p64
g28
(g29
(I0
tp65
g31
tp66
Rp67
(I1
(I1
I3
tp68
g7
I00
S'\xaaig#\xcb\xa2r\xbf\x06\xf9\xb6<\x06\x14\x8d?\xcfQ\xf3vUB\x84\xbf'
p69
tp70
bsS'intercept_'
p71
g28
(g29
(I0
tp72
g31
tp73
Rp74
(I1
(I1
tp75
g7
I00
S'\xbb#\xd5\x0e\x86[=?'
p76
tp77
bsS'max_iter'
p78
I100
sS'class_weight'
p79
S'balanced'
p80
sbsS'Label'
p81
(lp82
sS'Centroid'
p83
g28
(g29
(I0
tp84
g31
tp85
Rp86
(I1
(I3
tp87
g4
(S'f8'
p88
I0
I1
tp89
Rp90
(I3
S'<'
p91
NNNI-1
I-1
I0
tp92
bI00
S'\xce,\xd6\xfd\xe0\xf8j@\x04F\x95[\xcbBl@\x12\x1fg\x1b\xde$l@'
p93
tp94
bsS'Data'
p95
(lp96
sS'ID'
p97
S'0'
p98
sa(dp99
g2
g3
(g7
S'4\xff\x00\xb1\x86\x9a\xef?'
p100
tp101
Rp102
sg13
g14
(g15
g16
Ntp103
Rp104
(dp105
g20
I00
sg21
F1.0
sg22
Nsg23
I0
sg24
I01
sg25
g26
sg27
g28
(g29
(I0
tp106
g31
tp107
Rp108
(I1
(I2
tp109
g37
I00
S'\x00\x00\x00\x00\x00\x00\x00\x00\x01\x00\x00\x00\x00\x00\x00\x00'
p110
tp111
bsg42
g28
(g29
(I0
tp112
g31
tp113
Rp114
(I1
(I1
tp115
g49
I00
S'\x0f\x00\x00\x00'
p116
tp117
bsg54
I1
sg55
g56
sg57
g58
sg59
I0
sg60
g61
sg62
I00
sg63
F0.0001
sg64
g28
(g29
(I0
tp118
g31
tp119
Rp120
(I1
(I1
I3
tp121
g7
I00
S'\xf5&\xfa\x1e\xc9\x17h?\xaa\xc6\x91E:\xcde\xbf\xae\x065\x0bN\xa8L\xbf'
p122
tp123
bsg71
g28
(g29
(I0
tp124
g31
tp125
Rp126
(I1
(I1
tp127
g7
I00
S'\x0e\xe6\xb6dz\xb9\xae?'
p128
tp129
bsg78
I100
sg79
g80
sbsg81
(lp130
sg83
g28
(g29
(I0
tp131
g31
tp132
Rp133
(I1
(I3
tp134
g90
I00
S"\x8d\xbc\xd1\xd4\xf9\xb5E@O\t\xe4'V\x81K@s\x99\x83\x80[\x9fG@"
p135
tp136
bsg95
(lp137
sg97
S'1'
p138
sa.